; Function Attrs: mustprogress uwtable
define ptr @ulocale_getKeywords_77(ptr noundef %0, ptr noundef %1) local_unnamed_addr #1 {
  %3 = load i32, ptr %1, align 4, !tbaa !13
  %4 = icmp slt i32 %3, 1
  br i1 %4, label %5, label %11

5:                                                ; preds = %2
  %6 = icmp eq ptr %0, null
  br i1 %6, label %7, label %8

7:                                                ; preds = %5
  store i32 1, ptr %1, align 4, !tbaa !13
  br label %11

8:                                                ; preds = %5
  %9 = tail call noundef ptr @_ZNK6icu_776Locale14createKeywordsER10UErrorCode(ptr noundef nonnull align 8 dereferenceable(217) %0, ptr noundef nonnull align 4 dereferenceable(4) %1)
  %10 = tail call ptr @uenum_openFromStringEnumeration_77(ptr noundef %9, ptr noundef nonnull %1)
  br label %11

11:                                               ; preds = %2, %8, %7
  %.0 = phi ptr [ null, %7 ], [ %10, %8 ], [ null, %2 ]
  ret ptr %.0
}